target datalayout = "e-m:e-p270:32:32-p271:32:32-p272:64:64-i64:64-i128:128-f80:128-n8:16:32:64-S128"
target triple = "x86_64-pc-linux-gnu"

@_ZL7encoder = internal global [86 x i8] c"0123456789abcdefghijklmnopqrstuvwxyzABCDEFGHIJKLMNOPQRSTUVWXYZ.-:+=^!/*?&<>()[]{}@%$#\00", align 16

; Function Attrs: mustprogress nounwind uwtable
define ptr @zmq_z85_encode(ptr noundef %0, ptr noundef %1, i64 noundef %2) #7 {
  %4 = alloca ptr, align 8
  %5 = alloca ptr, align 8
  %6 = alloca ptr, align 8
  %7 = alloca i64, align 8
  %8 = alloca i32, align 4
  %9 = alloca i32, align 4
  %10 = alloca i32, align 4
  %11 = alloca i32, align 4
  store ptr %0, ptr %5, align 8, !tbaa !33
  store ptr %1, ptr %6, align 8, !tbaa !33
  store i64 %2, ptr %7, align 8, !tbaa !12
  %12 = load i64, ptr %7, align 8, !tbaa !12
  %13 = urem i64 %12, 4
  %14 = icmp ne i64 %13, 0
  br i1 %14, label %15, label %17

15:                                               ; preds = %3
  %16 = call ptr @__errno_location() #19
  store i32 22, ptr %16, align 4, !tbaa !3
  store ptr null, ptr %4, align 8
  br label %64

17:                                               ; preds = %3
  call void @llvm.lifetime.start.p0(i64 4, ptr %8) #15
  store i32 0, ptr %8, align 4, !tbaa !3
  call void @llvm.lifetime.start.p0(i64 4, ptr %9) #15
  store i32 0, ptr %9, align 4, !tbaa !3
  call void @llvm.lifetime.start.p0(i64 4, ptr %10) #15
  store i32 0, ptr %10, align 4, !tbaa !3
  br label %18

18:                                               ; preds = %57, %17
  %19 = load i32, ptr %9, align 4, !tbaa !3
  %20 = zext i32 %19 to i64
  %21 = load i64, ptr %7, align 8, !tbaa !12
  %22 = icmp ult i64 %20, %21
  br i1 %22, label %23, label %58

23:                                               ; preds = %18
  %24 = load i32, ptr %10, align 4, !tbaa !3
  %25 = mul i32 %24, 256
  %26 = load ptr, ptr %6, align 8, !tbaa !33
  %27 = load i32, ptr %9, align 4, !tbaa !3
  %28 = add i32 %27, 1
  store i32 %28, ptr %9, align 4, !tbaa !3
  %29 = zext i32 %27 to i64
  %30 = getelementptr inbounds nuw i8, ptr %26, i64 %29
  %31 = load i8, ptr %30, align 1, !tbaa !35
  %32 = zext i8 %31 to i32
  %33 = add i32 %25, %32
  store i32 %33, ptr %10, align 4, !tbaa !3
  %34 = load i32, ptr %9, align 4, !tbaa !3
  %35 = urem i32 %34, 4
  %36 = icmp eq i32 %35, 0
  br i1 %36, label %37, label %57

37:                                               ; preds = %23
  call void @llvm.lifetime.start.p0(i64 4, ptr %11) #15
  store i32 52200625, ptr %11, align 4, !tbaa !3
  br label %38

38:                                               ; preds = %41, %37
  %39 = load i32, ptr %11, align 4, !tbaa !3
  %40 = icmp ne i32 %39, 0
  br i1 %40, label %41, label %56

41:                                               ; preds = %38
  %42 = load i32, ptr %10, align 4, !tbaa !3
  %43 = load i32, ptr %11, align 4, !tbaa !3
  %44 = udiv i32 %42, %43
  %45 = urem i32 %44, 85
  %46 = zext i32 %45 to i64
  %47 = getelementptr inbounds nuw [86 x i8], ptr @_ZL7encoder, i64 0, i64 %46
  %48 = load i8, ptr %47, align 1, !tbaa !35
  %49 = load ptr, ptr %5, align 8, !tbaa !33
  %50 = load i32, ptr %8, align 4, !tbaa !3
  %51 = add i32 %50, 1
  store i32 %51, ptr %8, align 4, !tbaa !3
  %52 = zext i32 %50 to i64
  %53 = getelementptr inbounds nuw i8, ptr %49, i64 %52
  store i8 %48, ptr %53, align 1, !tbaa !35
  %54 = load i32, ptr %11, align 4, !tbaa !3
  %55 = udiv i32 %54, 85
  store i32 %55, ptr %11, align 4, !tbaa !3
  br label %38, !llvm.loop !36

56:                                               ; preds = %38
  store i32 0, ptr %10, align 4, !tbaa !3
  call void @llvm.lifetime.end.p0(i64 4, ptr %11) #15
  br label %57

57:                                               ; preds = %56, %23
  br label %18, !llvm.loop !38

58:                                               ; preds = %18
  %59 = load ptr, ptr %5, align 8, !tbaa !33
  %60 = load i32, ptr %8, align 4, !tbaa !3
  %61 = zext i32 %60 to i64
  %62 = getelementptr inbounds nuw i8, ptr %59, i64 %61
  store i8 0, ptr %62, align 1, !tbaa !35
  %63 = load ptr, ptr %5, align 8, !tbaa !33
  store ptr %63, ptr %4, align 8
  call void @llvm.lifetime.end.p0(i64 4, ptr %10) #15
  call void @llvm.lifetime.end.p0(i64 4, ptr %9) #15
  call void @llvm.lifetime.end.p0(i64 4, ptr %8) #15
  br label %64

64:                                               ; preds = %58, %15
  %65 = load ptr, ptr %4, align 8
  ret ptr %65
}