; Function Attrs: mustprogress nofree nosync nounwind memory(write, argmem: readwrite, inaccessiblemem: none) uwtable
define noundef ptr @zmq_z85_encode(ptr noundef writeonly %0, ptr noundef readonly captures(none) %1, i64 noundef %2) local_unnamed_addr #7 {
  %4 = and i64 %2, 3
  %.not = icmp eq i64 %4, 0
  br i1 %.not, label %.preheader23, label %5

.preheader23:                                     ; preds = %3
  %.not29 = icmp eq i64 %2, 0
  br i1 %.not29, label %._crit_edge, label %.lr.ph

5:                                                ; preds = %3
  %6 = tail call ptr @__errno_location() #24
  store i32 22, ptr %6, align 4, !tbaa !31
  br label %30

.lr.ph:                                           ; preds = %.preheader23, %.loopexit
  %7 = phi i64 [ %26, %.loopexit ], [ 0, %.preheader23 ]
  %.01628 = phi i32 [ %.1, %.loopexit ], [ 0, %.preheader23 ]
  %.01727 = phi i32 [ %9, %.loopexit ], [ 0, %.preheader23 ]
  %.01826 = phi i32 [ %.119, %.loopexit ], [ 0, %.preheader23 ]
  %8 = shl i32 %.01628, 8
  %9 = add i32 %.01727, 1
  %10 = getelementptr inbounds nuw i8, ptr %1, i64 %7
  %11 = load i8, ptr %10, align 1, !tbaa !32
  %12 = zext i8 %11 to i32
  %13 = or disjoint i32 %8, %12
  %14 = and i32 %9, 3
  %15 = icmp eq i32 %14, 0
  br i1 %15, label %.preheader.preheader, label %.loopexit

.preheader.preheader:                             ; preds = %.lr.ph
  %16 = add i32 %.01826, 5
  br label %.preheader

.preheader:                                       ; preds = %.preheader.preheader, %.preheader
  %.025 = phi i32 [ %25, %.preheader ], [ 52200625, %.preheader.preheader ]
  %.224 = phi i32 [ %22, %.preheader ], [ %.01826, %.preheader.preheader ]
  %17 = udiv i32 %13, %.025
  %18 = urem i32 %17, 85
  %19 = zext nneg i32 %18 to i64
  %20 = getelementptr inbounds nuw [86 x i8], ptr @_ZL7encoder, i64 0, i64 %19
  %21 = load i8, ptr %20, align 1, !tbaa !32
  %22 = add i32 %.224, 1
  %23 = zext i32 %.224 to i64
  %24 = getelementptr inbounds nuw i8, ptr %0, i64 %23
  store i8 %21, ptr %24, align 1, !tbaa !32
  %25 = udiv i32 %.025, 85
  %exitcond = icmp eq i32 %22, %16
  br i1 %exitcond, label %.loopexit, label %.preheader, !llvm.loop !33

.loopexit:                                        ; preds = %.preheader, %.lr.ph
  %.119 = phi i32 [ %.01826, %.lr.ph ], [ %16, %.preheader ]
  %.1 = phi i32 [ %13, %.lr.ph ], [ 0, %.preheader ]
  %26 = zext i32 %9 to i64
  %27 = icmp ugt i64 %2, %26
  br i1 %27, label %.lr.ph, label %._crit_edge.loopexit, !llvm.loop !35

._crit_edge.loopexit:                             ; preds = %.loopexit
  %28 = zext i32 %.119 to i64
  br label %._crit_edge

._crit_edge:                                      ; preds = %._crit_edge.loopexit, %.preheader23
  %.018.lcssa = phi i64 [ 0, %.preheader23 ], [ %28, %._crit_edge.loopexit ]
  %29 = getelementptr inbounds nuw i8, ptr %0, i64 %.018.lcssa
  store i8 0, ptr %29, align 1, !tbaa !32
  br label %30

30:                                               ; preds = %._crit_edge, %5
  %.020 = phi ptr [ null, %5 ], [ %0, %._crit_edge ]
  ret ptr %.020
}